; Function Attrs: mustprogress nounwind uwtable
define hidden void @_ZN6hermes9IRPrinter8quoteStrB5cxx11EN4llvh9StringRefE(ptr noalias sret(%"class.std::__cxx11::basic_string") align 8 %agg.result, ptr nocapture noundef nonnull readonly align 8 dereferenceable(208) %this, ptr %name.coerce0, i64 %name.coerce1) local_unnamed_addr #0 align 2 {
entry:
  %ref.tmp.i27 = alloca %"class.std::allocator", align 1
  %ref.tmp.i6 = alloca %"class.std::allocator", align 1
  %ref.tmp.i3 = alloca %"class.std::allocator", align 1
  %ref.tmp.i = alloca %"class.std::allocator", align 1
  %name = alloca %"class.llvh::StringRef", align 8
  %ref.tmp = alloca %"class.std::__cxx11::basic_string", align 8
  %ref.tmp3 = alloca %"class.std::__cxx11::basic_string", align 8
  %ref.tmp4 = alloca %"class.std::__cxx11::basic_string", align 8
  %ref.tmp5 = alloca %"class.std::__cxx11::basic_string", align 8
  store ptr %name.coerce0, ptr %name, align 8
  %0 = getelementptr inbounds i8, ptr %name, i64 8
  store i64 %name.coerce1, ptr %0, align 8
  %call = call noundef i64 @_ZNK4llvh9StringRef5countES0_(ptr noundef nonnull align 8 dereferenceable(16) %name, ptr nonnull @.str.3, i64 1) #13
  %tobool.not = icmp ne i64 %call, 0
  %1 = load i64, ptr %0, align 8
  %cmp.i = icmp eq i64 %1, 0
  %or.cond = select i1 %tobool.not, i1 true, i1 %cmp.i
  br i1 %or.cond, label %if.then, label %if.end

if.then:                                          ; preds = %entry
  call void @llvm.lifetime.start.p0(i64 1, ptr nonnull %ref.tmp.i)
  %needEscape.i = getelementptr inbounds i8, ptr %this, i64 32
  %2 = load i8, ptr %needEscape.i, align 8, !noalias !15
  %3 = and i8 %2, 1
  %tobool.not.i = icmp eq i8 %3, 0
  %cond.i = select i1 %tobool.not.i, ptr @.str.40, ptr @.str.1
  call void @_ZNSaIcEC1Ev(ptr noundef nonnull align 1 dereferenceable(1) %ref.tmp.i) #13, !noalias !15
  %call.i.i = call noundef ptr @_ZNSt7__cxx1112basic_stringIcSt11char_traitsIcESaIcEE13_M_local_dataEv(ptr noundef nonnull align 8 dereferenceable(32) %ref.tmp3) #13
  call void @_ZNSt7__cxx1112basic_stringIcSt11char_traitsIcESaIcEE12_Alloc_hiderC1EPcRKS3_(ptr noundef nonnull align 8 dereferenceable(8) %ref.tmp3, ptr noundef %call.i.i, ptr noundef nonnull align 1 dereferenceable(1) %ref.tmp.i) #13
  %call.i.i.i = select i1 %tobool.not.i, i64 1, i64 2
  %add.ptr.i.i = getelementptr inbounds i8, ptr %cond.i, i64 %call.i.i.i
  call void @_ZNSt7__cxx1112basic_stringIcSt11char_traitsIcESaIcEE12_M_constructIPKcEEvT_S8_St20forward_iterator_tag(ptr noundef nonnull align 8 dereferenceable(32) %ref.tmp3, ptr noundef nonnull %cond.i, ptr noundef nonnull %add.ptr.i.i)
  call void @_ZNSaIcED1Ev(ptr noundef nonnull align 1 dereferenceable(1) %ref.tmp.i) #13
  call void @llvm.lifetime.end.p0(i64 1, ptr nonnull %ref.tmp.i)
  call void @llvm.lifetime.start.p0(i64 1, ptr nonnull %ref.tmp.i3)
  %4 = load ptr, ptr %name, align 8, !noalias !18
  %tobool.not.i4 = icmp eq ptr %4, null
  br i1 %tobool.not.i4, label %if.then.i, label %if.end.i

if.then.i:                                        ; preds = %if.then
  call void @_ZNSt7__cxx1112basic_stringIcSt11char_traitsIcESaIcEEC1Ev(ptr noundef nonnull align 8 dereferenceable(32) %ref.tmp4) #13
  br label %_ZNK4llvh9StringRef3strB5cxx11Ev.exit

if.end.i:                                         ; preds = %if.then
  %5 = load i64, ptr %0, align 8, !noalias !18
  call void @_ZNSaIcEC1Ev(ptr noundef nonnull align 1 dereferenceable(1) %ref.tmp.i3) #13, !noalias !18
  call void @_ZNSt7__cxx1112basic_stringIcSt11char_traitsIcESaIcEEC1EPKcmRKS3_(ptr noundef nonnull align 8 dereferenceable(32) %ref.tmp4, ptr noundef nonnull %4, i64 noundef %5, ptr noundef nonnull align 1 dereferenceable(1) %ref.tmp.i3) #13
  call void @_ZNSaIcED1Ev(ptr noundef nonnull align 1 dereferenceable(1) %ref.tmp.i3) #13
  br label %_ZNK4llvh9StringRef3strB5cxx11Ev.exit

_ZNK4llvh9StringRef3strB5cxx11Ev.exit:            ; preds = %if.then.i, %if.end.i
  call void @llvm.lifetime.end.p0(i64 1, ptr nonnull %ref.tmp.i3)
  %call.i = call noundef i64 @_ZNKSt7__cxx1112basic_stringIcSt11char_traitsIcESaIcEE4sizeEv(ptr noundef nonnull align 8 dereferenceable(32) %ref.tmp3) #13, !noalias !21
  %call1.i = call noundef i64 @_ZNKSt7__cxx1112basic_stringIcSt11char_traitsIcESaIcEE4sizeEv(ptr noundef nonnull align 8 dereferenceable(32) %ref.tmp4) #13, !noalias !21
  %add.i = add i64 %call1.i, %call.i
  %call2.i = call noundef i64 @_ZNKSt7__cxx1112basic_stringIcSt11char_traitsIcESaIcEE8capacityEv(ptr noundef nonnull align 8 dereferenceable(32) %ref.tmp3) #13, !noalias !21
  %cmp.i5 = icmp ugt i64 %add.i, %call2.i
  br i1 %cmp.i5, label %land.lhs.true.i, label %if.end7.i

land.lhs.true.i:                                  ; preds = %_ZNK4llvh9StringRef3strB5cxx11Ev.exit
  %call3.i = call noundef i64 @_ZNKSt7__cxx1112basic_stringIcSt11char_traitsIcESaIcEE8capacityEv(ptr noundef nonnull align 8 dereferenceable(32) %ref.tmp4) #13, !noalias !21
  %cmp4.not.i = icmp ugt i64 %add.i, %call3.i
  br i1 %cmp4.not.i, label %if.end7.i, label %if.then5.i

if.then5.i:                                       ; preds = %land.lhs.true.i
  %call6.i = call noundef nonnull align 8 dereferenceable(32) ptr @_ZNSt7__cxx1112basic_stringIcSt11char_traitsIcESaIcEE6insertEmRKS4_(ptr noundef nonnull align 8 dereferenceable(32) %ref.tmp4, i64 noundef 0, ptr noundef nonnull align 8 dereferenceable(32) %ref.tmp3) #13, !noalias !21
  br label %_ZStplIcSt11char_traitsIcESaIcEENSt7__cxx1112basic_stringIT_T0_T1_EEOS8_S9_.exit

if.end7.i:                                        ; preds = %land.lhs.true.i, %_ZNK4llvh9StringRef3strB5cxx11Ev.exit
  %call8.i = call noundef nonnull align 8 dereferenceable(32) ptr @_ZNSt7__cxx1112basic_stringIcSt11char_traitsIcESaIcEE6appendERKS4_(ptr noundef nonnull align 8 dereferenceable(32) %ref.tmp3, ptr noundef nonnull align 8 dereferenceable(32) %ref.tmp4) #13, !noalias !21
  br label %_ZStplIcSt11char_traitsIcESaIcEENSt7__cxx1112basic_stringIT_T0_T1_EEOS8_S9_.exit

_ZStplIcSt11char_traitsIcESaIcEENSt7__cxx1112basic_stringIT_T0_T1_EEOS8_S9_.exit: ; preds = %if.then5.i, %if.end7.i
  %call8.sink.i = phi ptr [ %call8.i, %if.end7.i ], [ %call6.i, %if.then5.i ]
  call void @_ZNSt7__cxx1112basic_stringIcSt11char_traitsIcESaIcEEC1EOS4_(ptr noundef nonnull align 8 dereferenceable(32) %ref.tmp, ptr noundef nonnull align 8 dereferenceable(32) %call8.sink.i) #13
  call void @llvm.lifetime.start.p0(i64 1, ptr nonnull %ref.tmp.i6)
  %6 = load i8, ptr %needEscape.i, align 8, !noalias !24
  %7 = and i8 %6, 1
  %tobool.not.i8 = icmp eq i8 %7, 0
  %cond.i9 = select i1 %tobool.not.i8, ptr @.str.40, ptr @.str.1
  call void @_ZNSaIcEC1Ev(ptr noundef nonnull align 1 dereferenceable(1) %ref.tmp.i6) #13, !noalias !24
  %call.i.i10 = call noundef ptr @_ZNSt7__cxx1112basic_stringIcSt11char_traitsIcESaIcEE13_M_local_dataEv(ptr noundef nonnull align 8 dereferenceable(32) %ref.tmp5) #13
  call void @_ZNSt7__cxx1112basic_stringIcSt11char_traitsIcESaIcEE12_Alloc_hiderC1EPcRKS3_(ptr noundef nonnull align 8 dereferenceable(8) %ref.tmp5, ptr noundef %call.i.i10, ptr noundef nonnull align 1 dereferenceable(1) %ref.tmp.i6) #13
  %call.i.i.i11 = select i1 %tobool.not.i8, i64 1, i64 2
  %add.ptr.i.i12 = getelementptr inbounds i8, ptr %cond.i9, i64 %call.i.i.i11
  call void @_ZNSt7__cxx1112basic_stringIcSt11char_traitsIcESaIcEE12_M_constructIPKcEEvT_S8_St20forward_iterator_tag(ptr noundef nonnull align 8 dereferenceable(32) %ref.tmp5, ptr noundef nonnull %cond.i9, ptr noundef nonnull %add.ptr.i.i12)
  call void @_ZNSaIcED1Ev(ptr noundef nonnull align 1 dereferenceable(1) %ref.tmp.i6) #13
  call void @llvm.lifetime.end.p0(i64 1, ptr nonnull %ref.tmp.i6)
  %call.i13 = call noundef i64 @_ZNKSt7__cxx1112basic_stringIcSt11char_traitsIcESaIcEE4sizeEv(ptr noundef nonnull align 8 dereferenceable(32) %ref.tmp) #13, !noalias !27
  %call1.i14 = call noundef i64 @_ZNKSt7__cxx1112basic_stringIcSt11char_traitsIcESaIcEE4sizeEv(ptr noundef nonnull align 8 dereferenceable(32) %ref.tmp5) #13, !noalias !27
  %add.i15 = add i64 %call1.i14, %call.i13
  %call2.i16 = call noundef i64 @_ZNKSt7__cxx1112basic_stringIcSt11char_traitsIcESaIcEE8capacityEv(ptr noundef nonnull align 8 dereferenceable(32) %ref.tmp) #13, !noalias !27
  %cmp.i17 = icmp ugt i64 %add.i15, %call2.i16
  br i1 %cmp.i17, label %land.lhs.true.i21, label %if.end7.i18

land.lhs.true.i21:                                ; preds = %_ZStplIcSt11char_traitsIcESaIcEENSt7__cxx1112basic_stringIT_T0_T1_EEOS8_S9_.exit
  %call3.i22 = call noundef i64 @_ZNKSt7__cxx1112basic_stringIcSt11char_traitsIcESaIcEE8capacityEv(ptr noundef nonnull align 8 dereferenceable(32) %ref.tmp5) #13, !noalias !27
  %cmp4.not.i23 = icmp ugt i64 %add.i15, %call3.i22
  br i1 %cmp4.not.i23, label %if.end7.i18, label %if.then5.i24

if.then5.i24:                                     ; preds = %land.lhs.true.i21
  %call6.i25 = call noundef nonnull align 8 dereferenceable(32) ptr @_ZNSt7__cxx1112basic_stringIcSt11char_traitsIcESaIcEE6insertEmRKS4_(ptr noundef nonnull align 8 dereferenceable(32) %ref.tmp5, i64 noundef 0, ptr noundef nonnull align 8 dereferenceable(32) %ref.tmp) #13, !noalias !27
  br label %_ZStplIcSt11char_traitsIcESaIcEENSt7__cxx1112basic_stringIT_T0_T1_EEOS8_S9_.exit26

if.end7.i18:                                      ; preds = %land.lhs.true.i21, %_ZStplIcSt11char_traitsIcESaIcEENSt7__cxx1112basic_stringIT_T0_T1_EEOS8_S9_.exit
  %call8.i19 = call noundef nonnull align 8 dereferenceable(32) ptr @_ZNSt7__cxx1112basic_stringIcSt11char_traitsIcESaIcEE6appendERKS4_(ptr noundef nonnull align 8 dereferenceable(32) %ref.tmp, ptr noundef nonnull align 8 dereferenceable(32) %ref.tmp5) #13, !noalias !27
  br label %_ZStplIcSt11char_traitsIcESaIcEENSt7__cxx1112basic_stringIT_T0_T1_EEOS8_S9_.exit26

_ZStplIcSt11char_traitsIcESaIcEENSt7__cxx1112basic_stringIT_T0_T1_EEOS8_S9_.exit26: ; preds = %if.then5.i24, %if.end7.i18
  %call8.sink.i20 = phi ptr [ %call8.i19, %if.end7.i18 ], [ %call6.i25, %if.then5.i24 ]
  call void @_ZNSt7__cxx1112basic_stringIcSt11char_traitsIcESaIcEEC1EOS4_(ptr noundef nonnull align 8 dereferenceable(32) %agg.result, ptr noundef nonnull align 8 dereferenceable(32) %call8.sink.i20) #13
  call void @_ZNSt7__cxx1112basic_stringIcSt11char_traitsIcESaIcEED1Ev(ptr noundef nonnull align 8 dereferenceable(32) %ref.tmp5) #13
  call void @_ZNSt7__cxx1112basic_stringIcSt11char_traitsIcESaIcEED1Ev(ptr noundef nonnull align 8 dereferenceable(32) %ref.tmp) #13
  call void @_ZNSt7__cxx1112basic_stringIcSt11char_traitsIcESaIcEED1Ev(ptr noundef nonnull align 8 dereferenceable(32) %ref.tmp4) #13
  call void @_ZNSt7__cxx1112basic_stringIcSt11char_traitsIcESaIcEED1Ev(ptr noundef nonnull align 8 dereferenceable(32) %ref.tmp3) #13
  br label %return

if.end:                                           ; preds = %entry
  call void @llvm.lifetime.start.p0(i64 1, ptr nonnull %ref.tmp.i27)
  %8 = load ptr, ptr %name, align 8, !noalias !30
  %tobool.not.i28 = icmp eq ptr %8, null
  br i1 %tobool.not.i28, label %if.then.i31, label %if.end.i29

if.then.i31:                                      ; preds = %if.end
  call void @_ZNSt7__cxx1112basic_stringIcSt11char_traitsIcESaIcEEC1Ev(ptr noundef nonnull align 8 dereferenceable(32) %agg.result) #13
  br label %_ZNK4llvh9StringRef3strB5cxx11Ev.exit32

if.end.i29:                                       ; preds = %if.end
  call void @_ZNSaIcEC1Ev(ptr noundef nonnull align 1 dereferenceable(1) %ref.tmp.i27) #13, !noalias !30
  call void @_ZNSt7__cxx1112basic_stringIcSt11char_traitsIcESaIcEEC1EPKcmRKS3_(ptr noundef nonnull align 8 dereferenceable(32) %agg.result, ptr noundef nonnull %8, i64 noundef %1, ptr noundef nonnull align 1 dereferenceable(1) %ref.tmp.i27) #13
  call void @_ZNSaIcED1Ev(ptr noundef nonnull align 1 dereferenceable(1) %ref.tmp.i27) #13
  br label %_ZNK4llvh9StringRef3strB5cxx11Ev.exit32

_ZNK4llvh9StringRef3strB5cxx11Ev.exit32:          ; preds = %if.then.i31, %if.end.i29
  call void @llvm.lifetime.end.p0(i64 1, ptr nonnull %ref.tmp.i27)
  br label %return

return:                                           ; preds = %_ZNK4llvh9StringRef3strB5cxx11Ev.exit32, %_ZStplIcSt11char_traitsIcESaIcEENSt7__cxx1112basic_stringIT_T0_T1_EEOS8_S9_.exit26
  ret void
}